target datalayout = "e-m:e-p270:32:32-p271:32:32-p272:64:64-i64:64-i128:128-f80:128-n8:16:32:64-S128"
target triple = "x86_64-pc-linux-gnu"

%class.JVMState = type { ptr, i32, i32, i32, i32, i32, i32, i32, i32, i32, ptr, ptr }
%class.ciMethod = type { %class.ciMetadata, %class.ciFlags, ptr, ptr, ptr, ptr, ptr, i32, i32, i32, i32, i32, i32, i32, i32, i32, i8, i8, i8, i8, i8, i8, i8, i8, i8, ptr, ptr, ptr, ptr, ptr }
%class.ciMetadata = type { %class.ciBaseObject.base, ptr }
%class.ciBaseObject.base = type <{ ptr, i32 }>
%class.ciFlags = type <{ i32, i8, i8, [2 x i8] }>

; Function Attrs: mustprogress nounwind uwtable
define linkonce_odr hidden noundef i32 @_ZNK8JVMState6scloffEv(ptr noundef nonnull align 8 dereferenceable(64) %0) #1 comdat align 2 {
  %2 = alloca ptr, align 8
  store ptr %0, ptr %2, align 8
  %3 = load ptr, ptr %2, align 8
  %4 = getelementptr inbounds %class.JVMState, ptr %3, i32 0, i32 5
  %5 = load i32, ptr %4, align 8
  ret i32 %5
}

; Function Attrs: mustprogress nounwind uwtable
define linkonce_odr hidden noundef i32 @_ZNK8JVMState8mon_sizeEv(ptr noundef nonnull align 8 dereferenceable(64) %0) #1 comdat align 2 {
  %2 = alloca ptr, align 8
  store ptr %0, ptr %2, align 8
  %3 = load ptr, ptr %2, align 8
  %4 = call noundef i32 @_ZNK8JVMState6scloffEv(ptr noundef nonnull align 8 dereferenceable(64) %3)
  %5 = call noundef i32 @_ZNK8JVMState6monoffEv(ptr noundef nonnull align 8 dereferenceable(64) %3)
  %6 = sub i32 %4, %5
  ret i32 %6
}

; Function Attrs: mustprogress nounwind uwtable
define linkonce_odr hidden noundef i32 @_ZNK8JVMState6stkoffEv(ptr noundef nonnull align 8 dereferenceable(64) %0) #1 comdat align 2 {
  %2 = alloca ptr, align 8
  store ptr %0, ptr %2, align 8
  %3 = load ptr, ptr %2, align 8
  %4 = getelementptr inbounds %class.JVMState, ptr %3, i32 0, i32 3
  %5 = load i32, ptr %4, align 8
  ret i32 %5
}

; Function Attrs: mustprogress nounwind uwtable
define linkonce_odr hidden noundef i32 @_ZNK8JVMState6monoffEv(ptr noundef nonnull align 8 dereferenceable(64) %0) #1 comdat align 2 {
  %2 = alloca ptr, align 8
  store ptr %0, ptr %2, align 8
  %3 = load ptr, ptr %2, align 8
  %4 = getelementptr inbounds %class.JVMState, ptr %3, i32 0, i32 4
  %5 = load i32, ptr %4, align 4
  ret i32 %5
}

; Function Attrs: mustprogress nounwind uwtable
define linkonce_odr hidden void @_ZNK8ciMethod15check_is_loadedEv(ptr noundef nonnull align 8 dereferenceable(160) %0) #1 comdat align 2 {
  %2 = alloca ptr, align 8
  store ptr %0, ptr %2, align 8
  ret void
}

; Function Attrs: mustprogress nounwind uwtable
define linkonce_odr hidden noundef ptr @_ZNK8JVMState6callerEv(ptr noundef nonnull align 8 dereferenceable(64) %0) #1 comdat align 2 {
  %2 = alloca ptr, align 8
  store ptr %0, ptr %2, align 8
  %3 = load ptr, ptr %2, align 8
  %4 = getelementptr inbounds %class.JVMState, ptr %3, i32 0, i32 0
  %5 = load ptr, ptr %4, align 8
  ret ptr %5
}

; Function Attrs: mustprogress nounwind uwtable
define linkonce_odr hidden noundef i32 @_ZNK8ciMethod10max_localsEv(ptr noundef nonnull align 8 dereferenceable(160) %0) #1 comdat align 2 {
  %2 = alloca ptr, align 8
  store ptr %0, ptr %2, align 8
  %3 = load ptr, ptr %2, align 8
  call void @_ZNK8ciMethod15check_is_loadedEv(ptr noundef nonnull align 8 dereferenceable(160) %3)
  %4 = getelementptr inbounds %class.ciMethod, ptr %3, i32 0, i32 9
  %5 = load i32, ptr %4, align 8
  ret i32 %5
}

; Function Attrs: mustprogress nounwind uwtable
define linkonce_odr hidden noundef i32 @_ZNK8ciMethod18size_of_parametersEv(ptr noundef nonnull align 8 dereferenceable(160) %0) #1 comdat align 2 {
  %2 = alloca ptr, align 8
  store ptr %0, ptr %2, align 8
  %3 = load ptr, ptr %2, align 8
  call void @_ZNK8ciMethod15check_is_loadedEv(ptr noundef nonnull align 8 dereferenceable(160) %3)
  %4 = getelementptr inbounds %class.ciMethod, ptr %3, i32 0, i32 15
  %5 = load i32, ptr %4, align 8
  ret i32 %5
}

; Function Attrs: mustprogress nounwind uwtable
define linkonce_odr hidden noundef i32 @_ZNK8JVMState12nof_monitorsEv(ptr noundef nonnull align 8 dereferenceable(64) %0) #1 comdat align 2 {
  %2 = alloca ptr, align 8
  store ptr %0, ptr %2, align 8
  %3 = load ptr, ptr %2, align 8
  %4 = call noundef i32 @_ZNK8JVMState8mon_sizeEv(ptr noundef nonnull align 8 dereferenceable(64) %3)
  %5 = ashr i32 %4, 1
  ret i32 %5
}

; Function Attrs: mustprogress nounwind uwtable
define linkonce_odr hidden noundef i32 @_ZNK8JVMState8stk_sizeEv(ptr noundef nonnull align 8 dereferenceable(64) %0) #1 comdat align 2 {
  %2 = alloca ptr, align 8
  store ptr %0, ptr %2, align 8
  %3 = load ptr, ptr %2, align 8
  %4 = call noundef i32 @_ZNK8JVMState6monoffEv(ptr noundef nonnull align 8 dereferenceable(64) %3)
  %5 = call noundef i32 @_ZNK8JVMState6stkoffEv(ptr noundef nonnull align 8 dereferenceable(64) %3)
  %6 = sub i32 %4, %5
  ret i32 %6
}

; Function Attrs: mustprogress nounwind uwtable
define linkonce_odr hidden noundef i32 @_ZNK8ciMethod9max_stackEv(ptr noundef nonnull align 8 dereferenceable(160) %0) #1 comdat align 2 {
  %2 = alloca ptr, align 8
  store ptr %0, ptr %2, align 8
  %3 = load ptr, ptr %2, align 8
  call void @_ZNK8ciMethod15check_is_loadedEv(ptr noundef nonnull align 8 dereferenceable(160) %3)
  %4 = getelementptr inbounds %class.ciMethod, ptr %3, i32 0, i32 8
  %5 = load i32, ptr %4, align 4
  ret i32 %5
}

; Function Attrs: mustprogress nounwind uwtable
define linkonce_odr hidden noundef ptr @_ZNK8JVMState6methodEv(ptr noundef nonnull align 8 dereferenceable(64) %0) #1 comdat align 2 {
  %2 = alloca ptr, align 8
  store ptr %0, ptr %2, align 8
  %3 = load ptr, ptr %2, align 8
  %4 = getelementptr inbounds %class.JVMState, ptr %3, i32 0, i32 10
  %5 = load ptr, ptr %4, align 8
  ret ptr %5
}

; Function Attrs: mustprogress nounwind uwtable
define hidden noundef i32 @_ZNK8JVMState22interpreter_frame_sizeEv(ptr noundef nonnull align 8 dereferenceable(64) %0) #1 align 2 {
  %2 = alloca ptr, align 8
  %3 = alloca ptr, align 8
  %4 = alloca i32, align 4
  %5 = alloca i32, align 4
  %6 = alloca i32, align 4
  %7 = alloca i32, align 4
  %8 = alloca i32, align 4
  %9 = alloca i32, align 4
  %10 = alloca i8, align 1
  %11 = alloca ptr, align 8
  %12 = alloca i32, align 4
  store ptr %0, ptr %2, align 8
  %13 = load ptr, ptr %2, align 8
  store ptr %13, ptr %3, align 8
  store i32 0, ptr %4, align 4
  store i32 0, ptr %5, align 4
  store i32 0, ptr %6, align 4
  %14 = call noundef ptr @_ZNK8JVMState6methodEv(ptr noundef nonnull align 8 dereferenceable(64) %13)
  %15 = call noundef i32 @_ZNK8ciMethod9max_stackEv(ptr noundef nonnull align 8 dereferenceable(160) %14)
  %16 = call noundef i32 @_ZNK8JVMState8stk_sizeEv(ptr noundef nonnull align 8 dereferenceable(64) %13)
  %17 = sub nsw i32 %15, %16
  store i32 %17, ptr %7, align 4
  br label %18

18:                                               ; preds = %21, %1
  %19 = load ptr, ptr %3, align 8
  %20 = icmp ne ptr %19, null
  br i1 %20, label %21, label %53

21:                                               ; preds = %18
  %22 = load ptr, ptr %3, align 8
  %23 = call noundef i32 @_ZNK8JVMState12nof_monitorsEv(ptr noundef nonnull align 8 dereferenceable(64) %22)
  store i32 %23, ptr %8, align 4
  %24 = load ptr, ptr %3, align 8
  %25 = call noundef i32 @_ZNK8JVMState8stk_sizeEv(ptr noundef nonnull align 8 dereferenceable(64) %24)
  store i32 %25, ptr %9, align 4
  %26 = load ptr, ptr %3, align 8
  %27 = icmp eq ptr %26, %13
  %28 = zext i1 %27 to i8
  store i8 %28, ptr %10, align 1
  %29 = load ptr, ptr %3, align 8
  %30 = call noundef ptr @_ZNK8JVMState6methodEv(ptr noundef nonnull align 8 dereferenceable(64) %29)
  store ptr %30, ptr %11, align 8
  %31 = load ptr, ptr %11, align 8
  %32 = call noundef i32 @_ZNK8ciMethod9max_stackEv(ptr noundef nonnull align 8 dereferenceable(160) %31)
  %33 = load i32, ptr %9, align 4
  %34 = load i32, ptr %5, align 4
  %35 = add nsw i32 %33, %34
  %36 = load i32, ptr %7, align 4
  %37 = load i32, ptr %8, align 4
  %38 = load i32, ptr %5, align 4
  %39 = load i32, ptr %6, align 4
  %40 = load i8, ptr %10, align 1
  %41 = trunc i8 %40 to i1
  %42 = call noundef i32 @_ZN19AbstractInterpreter15size_activationEiiiiiib(i32 noundef %32, i32 noundef %35, i32 noundef %36, i32 noundef %37, i32 noundef %38, i32 noundef %39, i1 noundef zeroext %41)
  %43 = mul nsw i32 8, %42
  store i32 %43, ptr %12, align 4
  %44 = load i32, ptr %12, align 4
  %45 = load i32, ptr %4, align 4
  %46 = add nsw i32 %45, %44
  store i32 %46, ptr %4, align 4
  %47 = load ptr, ptr %11, align 8
  %48 = call noundef i32 @_ZNK8ciMethod18size_of_parametersEv(ptr noundef nonnull align 8 dereferenceable(160) %47)
  store i32 %48, ptr %5, align 4
  %49 = load ptr, ptr %11, align 8
  %50 = call noundef i32 @_ZNK8ciMethod10max_localsEv(ptr noundef nonnull align 8 dereferenceable(160) %49)
  store i32 %50, ptr %6, align 4
  store i32 0, ptr %7, align 4
  %51 = load ptr, ptr %3, align 8
  %52 = call noundef ptr @_ZNK8JVMState6callerEv(ptr noundef nonnull align 8 dereferenceable(64) %51)
  store ptr %52, ptr %3, align 8
  br label %18, !llvm.loop !13

53:                                               ; preds = %18
  %54 = load i32, ptr %4, align 4
  %55 = load i32, ptr %6, align 4
  %56 = call noundef i32 @_ZN14Deoptimization17last_frame_adjustEii(i32 noundef 0, i32 noundef %55)
  %57 = mul nsw i32 %56, 8
  %58 = add nsw i32 %54, %57
  ret i32 %58
}