; Function Attrs: mustprogress nounwind uwtable
define hidden noundef i32 @_ZNK8JVMState22interpreter_frame_sizeEv(ptr noundef nonnull readonly align 8 dereferenceable(64) %0) local_unnamed_addr #2 align 2 {
  %2 = getelementptr inbounds i8, ptr %0, i64 48
  %3 = load ptr, ptr %2, align 8
  %4 = getelementptr inbounds i8, ptr %3, i64 76
  %5 = load i32, ptr %4, align 4
  %6 = getelementptr inbounds i8, ptr %0, i64 20
  %7 = load i32, ptr %6, align 4
  %8 = getelementptr inbounds i8, ptr %0, i64 16
  %9 = load i32, ptr %8, align 8
  %.neg = sub i32 %5, %7
  %10 = add i32 %.neg, %9
  br label %11

11:                                               ; preds = %1, %11
  %.030 = phi ptr [ %0, %1 ], [ %34, %11 ]
  %.02029 = phi i32 [ 0, %1 ], [ %29, %11 ]
  %.02128 = phi i32 [ 0, %1 ], [ %31, %11 ]
  %.02227 = phi i32 [ 0, %1 ], [ %33, %11 ]
  %.02326 = phi i32 [ %10, %1 ], [ 0, %11 ]
  %12 = getelementptr inbounds i8, ptr %.030, i64 24
  %13 = load i32, ptr %12, align 8
  %14 = getelementptr inbounds i8, ptr %.030, i64 20
  %15 = load i32, ptr %14, align 4
  %16 = sub i32 %13, %15
  %17 = ashr i32 %16, 1
  %18 = getelementptr inbounds i8, ptr %.030, i64 16
  %19 = load i32, ptr %18, align 8
  %20 = icmp eq ptr %.030, %0
  %21 = getelementptr inbounds i8, ptr %.030, i64 48
  %22 = load ptr, ptr %21, align 8
  %23 = getelementptr inbounds i8, ptr %22, i64 76
  %24 = load i32, ptr %23, align 4
  %25 = add i32 %15, %.02128
  %26 = sub i32 %25, %19
  %27 = tail call noundef i32 @_ZN19AbstractInterpreter15size_activationEiiiiiib(i32 noundef %24, i32 noundef %26, i32 noundef %.02326, i32 noundef %17, i32 noundef %.02128, i32 noundef %.02227, i1 noundef zeroext %20) #15
  %28 = shl nsw i32 %27, 3
  %29 = add nsw i32 %28, %.02029
  %30 = getelementptr inbounds i8, ptr %22, i64 104
  %31 = load i32, ptr %30, align 8
  %32 = getelementptr inbounds i8, ptr %22, i64 80
  %33 = load i32, ptr %32, align 8
  %34 = load ptr, ptr %.030, align 8
  %.not = icmp eq ptr %34, null
  br i1 %.not, label %35, label %11, !llvm.loop !13

35:                                               ; preds = %11
  %36 = tail call noundef i32 @_ZN14Deoptimization17last_frame_adjustEii(i32 noundef 0, i32 noundef %33) #15
  %37 = add i32 %27, %36
  %38 = shl i32 %37, 3
  %39 = add i32 %38, %.02029
  ret i32 %39
}